libspdlog.so.1.12:_ZN3fmt2v912format_errorD0Ev
libspdlog.so.1.12:_ZN3fmt2v912format_errorD1Ev
libspdlog.so.1.12:_ZN3fmt2v912format_errorD2Ev
libspdlog.so.1.12:_ZN3fmt2v913vsystem_errorEiNS0_17basic_string_viewIcEENS0_17basic_format_argsINS0_20basic_format_contextINS0_8appenderEcEEEE
libspdlog.so.1.12:_ZN3fmt2v919format_system_errorERNS0_6detail6bufferIcEEiPKc
libspdlog.so.1.12:_ZN3fmt2v919report_system_errorEiPKc
libspdlog.so.1.12:_ZN3fmt2v96detail10locale_refC1ISt6localeEERKT_
libspdlog.so.1.12:_ZN3fmt2v96detail10locale_refC2ISt6localeEERKT_
libspdlog.so.1.12:_ZN3fmt2v96detail10vformat_toIcEEvRNS1_6bufferIT_EENS0_17basic_string_viewIS4_EENS0_17basic_format_argsINS0_20basic_format_contextINSt11conditionalIXsrSt7is_sameINS0_13type_identityIS4_E4typeEcE5valueENS0_8appenderESt20back_insert_iteratorINS3_ISF_EEEE4typeESF_EEEENS1_10locale_refE
libspdlog.so.1.12:_ZN3fmt2v96detail11assert_failEPKciS3_
libspdlog.so.1.12:_ZN3fmt2v96detail12is_printableEj
libspdlog.so.1.12:_ZN3fmt2v96detail12report_errorEPFvRNS1_6bufferIcEEiPKcEiS6_
libspdlog.so.1.12:_ZN3fmt2v96detail13utf8_to_utf16C1ENS0_17basic_string_viewIcEE
libspdlog.so.1.12:_ZN3fmt2v96detail13utf8_to_utf16C2ENS0_17basic_string_viewIcEE
libspdlog.so.1.12:_ZN3fmt2v96detail17format_error_codeERNS1_6bufferIcEEiNS0_17basic_string_viewIcEE
libspdlog.so.1.12:_ZN3fmt2v96detail18decimal_point_implIcEET_NS1_10locale_refE
libspdlog.so.1.12:_ZN3fmt2v96detail18decimal_point_implIwEET_NS1_10locale_refE
libspdlog.so.1.12:_ZN3fmt2v96detail18parse_format_specsIA3_cNS1_21compile_parse_contextIcNS1_13error_handlerEEEEEDTcldtfp_5beginEERT0_
libspdlog.so.1.12:_ZN3fmt2v96detail18parse_format_specsIA7_cNS1_21compile_parse_contextIcNS1_13error_handlerEEEEEDTcldtfp_5beginEERT0_
libspdlog.so.1.12:_ZN3fmt2v96detail18parse_format_specsINS0_17basic_string_viewIcEENS1_21compile_parse_contextIcNS1_13error_handlerEEEEEDTcldtfp_5beginEERT0_
libspdlog.so.1.12:_ZN3fmt2v96detail18parse_format_specsIPKcNS1_21compile_parse_contextIcNS1_13error_handlerEEEEEDTcldtfp_5beginEERT0_
libspdlog.so.1.12:_ZN3fmt2v96detail18parse_format_specsIiNS1_21compile_parse_contextIcNS1_13error_handlerEEEEEDTcldtfp_5beginEERT0_
libspdlog.so.1.12:_ZN3fmt2v96detail18thousands_sep_implIcEENS1_20thousands_sep_resultIT_EENS1_10locale_refE
libspdlog.so.1.12:_ZN3fmt2v96detail18thousands_sep_implIwEENS1_20thousands_sep_resultIT_EENS1_10locale_refE
libspdlog.so.1.12:_ZN3fmt2v96detail18throw_format_errorEPKc
libspdlog.so.1.12:_ZN3fmt2v96detail5printEP8_IO_FILENS0_17basic_string_viewIcEE
libspdlog.so.1.12:_ZN3fmt2v96detail6bufferIcE6appendIcEEvPKT_S7_
libspdlog.so.1.12:_ZN3fmt2v96detail6bufferIwE6appendIwEEvPKT_S7_
libspdlog.so.1.12:_ZN3fmt2v96detail9dragonbox10to_decimalIdEENS2_10decimal_fpIT_EES5_
libspdlog.so.1.12:_ZN3fmt2v96detail9dragonbox10to_decimalIfEENS2_10decimal_fpIT_EES5_
libspdlog.so.1.12:_ZN3fmt2v96vprintENS0_17basic_string_viewIcEENS0_17basic_format_argsINS0_20basic_format_contextINS0_8appenderEcEEEE
libspdlog.so.1.12:_ZN3fmt2v96vprintEP8_IO_FILENS0_17basic_string_viewIcEENS0_17basic_format_argsINS0_20basic_format_contextINS0_8appenderEcEEEE
libspdlog.so.1.12:_ZN3fmt2v97vformatB5cxx11ENS0_17basic_string_viewIcEENS0_17basic_format_argsINS0_20basic_format_contextINS0_8appenderEcEEEE
libspdlog.so.1.12:_ZN6spdlog10should_logENS_5level10level_enumE
libspdlog.so.1.12:_ZN6spdlog11set_patternENSt7__cxx1112basic_stringIcSt11char_traitsIcESaIcEEENS_17pattern_time_typeE
libspdlog.so.1.12:_ZN6spdlog12async_logger14backend_flush_Ev
libspdlog.so.1.12:_ZN6spdlog12async_logger16backend_sink_it_ERKNS_7details7log_msgE
libspdlog.so.1.12:_ZN6spdlog12async_logger5cloneENSt7__cxx1112basic_stringIcSt11char_traitsIcESaIcEEE
libspdlog.so.1.12:_ZN6spdlog12async_logger6flush_Ev
libspdlog.so.1.12:_ZN6spdlog12async_logger8sink_it_ERKNS_7details7log_msgE
libspdlog.so.1.12:_ZN6spdlog12async_loggerC1ENSt7__cxx1112basic_stringIcSt11char_traitsIcESaIcEEESt10shared_ptrINS_5sinks4sinkEESt8weak_ptrINS_7details11thread_poolEENS_21async_overflow_policyE
libspdlog.so.1.12:_ZN6spdlog12async_loggerC1ENSt7__cxx1112basic_stringIcSt11char_traitsIcESaIcEEESt16initializer_listISt10shared_ptrINS_5sinks4sinkEEESt8weak_ptrINS_7details11thread_poolEENS_21async_overflow_policyE
libspdlog.so.1.12:_ZN6spdlog12async_loggerC2ENSt7__cxx1112basic_stringIcSt11char_traitsIcESaIcEEESt10shared_ptrINS_5sinks4sinkEESt8weak_ptrINS_7details11thread_poolEENS_21async_overflow_policyE
libspdlog.so.1.12:_ZN6spdlog12async_loggerC2ENSt7__cxx1112basic_stringIcSt11char_traitsIcESaIcEEESt16initializer_listISt10shared_ptrINS_5sinks4sinkEEESt8weak_ptrINS_7details11thread_poolEENS_21async_overflow_policyE
libspdlog.so.1.12:_ZN6spdlog13set_formatterESt10unique_ptrINS_9formatterESt14default_deleteIS1_EE
libspdlog.so.1.12:_ZN6spdlog14default_loggerEv
libspdlog.so.1.12:_ZN6spdlog14dump_backtraceEv
libspdlog.so.1.12:_ZN6spdlog15register_loggerESt10shared_ptrINS_6loggerEE
libspdlog.so.1.12:_ZN6spdlog15stderr_color_mtINS_18async_factory_implILNS_21async_overflow_policyE0EEEEESt10shared_ptrINS_6loggerEERKNSt7__cxx1112basic_stringIcSt11char_traitsIcESaIcEEENS_10color_modeE
libspdlog.so.1.12:_ZN6spdlog15stderr_color_mtINS_19synchronous_factoryEEESt10shared_ptrINS_6loggerEERKNSt7__cxx1112basic_stringIcSt11char_traitsIcESaIcEEENS_10color_modeE
libspdlog.so.1.12:_ZN6spdlog15stderr_color_stINS_18async_factory_implILNS_21async_overflow_policyE0EEEEESt10shared_ptrINS_6loggerEERKNSt7__cxx1112basic_stringIcSt11char_traitsIcESaIcEEENS_10color_modeE
libspdlog.so.1.12:_ZN6spdlog15stderr_color_stINS_19synchronous_factoryEEESt10shared_ptrINS_6loggerEERKNSt7__cxx1112basic_stringIcSt11char_traitsIcESaIcEEENS_10color_modeE
libspdlog.so.1.12:_ZN6spdlog15stdout_color_mtINS_18async_factory_implILNS_21async_overflow_policyE0EEEEESt10shared_ptrINS_6loggerEERKNSt7__cxx1112basic_stringIcSt11char_traitsIcESaIcEEENS_10color_modeE
libspdlog.so.1.12:_ZN6spdlog15stdout_color_mtINS_19synchronous_factoryEEESt10shared_ptrINS_6loggerEERKNSt7__cxx1112basic_stringIcSt11char_traitsIcESaIcEEENS_10color_modeE
libspdlog.so.1.12:_ZN6spdlog15stdout_color_stINS_18async_factory_implILNS_21async_overflow_policyE0EEEEESt10shared_ptrINS_6loggerEERKNSt7__cxx1112basic_stringIcSt11char_traitsIcESaIcEEENS_10color_modeE
libspdlog.so.1.12:_ZN6spdlog15stdout_color_stINS_19synchronous_factoryEEESt10shared_ptrINS_6loggerEERKNSt7__cxx1112basic_stringIcSt11char_traitsIcESaIcEEENS_10color_modeE
libspdlog.so.1.12:_ZN6spdlog15throw_spdlog_exENSt7__cxx1112basic_stringIcSt11char_traitsIcESaIcEEE
libspdlog.so.1.12:_ZN6spdlog15throw_spdlog_exERKNSt7__cxx1112basic_stringIcSt11char_traitsIcESaIcEEEi
libspdlog.so.1.12:_ZN6spdlog16enable_backtraceEm
libspdlog.so.1.12:_ZN6spdlog16stderr_logger_mtINS_18async_factory_implILNS_21async_overflow_policyE0EEEEESt10shared_ptrINS_6loggerEERKNSt7__cxx1112basic_stringIcSt11char_traitsIcESaIcEEE
libspdlog.so.1.12:_ZN6spdlog16stderr_logger_mtINS_19synchronous_factoryEEESt10shared_ptrINS_6loggerEERKNSt7__cxx1112basic_stringIcSt11char_traitsIcESaIcEEE
libspdlog.so.1.12:_ZN6spdlog16stderr_logger_stINS_18async_factory_implILNS_21async_overflow_policyE0EEEEESt10shared_ptrINS_6loggerEERKNSt7__cxx1112basic_stringIcSt11char_traitsIcESaIcEEE
libspdlog.so.1.12:_ZN6spdlog16stderr_logger_stINS_19synchronous_factoryEEESt10shared_ptrINS_6loggerEERKNSt7__cxx1112basic_stringIcSt11char_traitsIcESaIcEEE
libspdlog.so.1.12:_ZN6spdlog16stdout_logger_mtINS_18async_factory_implILNS_21async_overflow_policyE0EEEEESt10shared_ptrINS_6loggerEERKNSt7__cxx1112basic_stringIcSt11char_traitsIcESaIcEEE
libspdlog.so.1.12:_ZN6spdlog16stdout_logger_mtINS_19synchronous_factoryEEESt10shared_ptrINS_6loggerEERKNSt7__cxx1112basic_stringIcSt11char_traitsIcESaIcEEE
libspdlog.so.1.12:_ZN6spdlog16stdout_logger_stINS_18async_factory_implILNS_21async_overflow_policyE0EEEEESt10shared_ptrINS_6loggerEERKNSt7__cxx1112basic_stringIcSt11char_traitsIcESaIcEEE
libspdlog.so.1.12:_ZN6spdlog16stdout_logger_stINS_19synchronous_factoryEEESt10shared_ptrINS_6loggerEERKNSt7__cxx1112basic_stringIcSt11char_traitsIcESaIcEEE
libspdlog.so.1.12:_ZN6spdlog17disable_backtraceEv
libspdlog.so.1.12:_ZN6spdlog17initialize_loggerESt10shared_ptrINS_6loggerEE
libspdlog.so.1.12:_ZN6spdlog17pattern_formatter11set_patternENSt7__cxx1112basic_stringIcSt11char_traitsIcESaIcEEE
libspdlog.so.1.12:_ZN6spdlog17pattern_formatter14need_localtimeEb
libspdlog.so.1.12:_ZN6spdlog17pattern_formatter15handle_padspec_ERN9__gnu_cxx17__normal_iteratorIPKcNSt7__cxx1112basic_stringIcSt11char_traitsIcESaIcEEEEESB_
libspdlog.so.1.12:_ZN6spdlog17pattern_formatter16compile_pattern_ERKNSt7__cxx1112basic_stringIcSt11char_traitsIcESaIcEEE
libspdlog.so.1.12:_ZN6spdlog17pattern_formatter6formatERKNS_7details7log_msgERN3fmt2v919basic_memory_bufferIcLm250ESaIcEEE
libspdlog.so.1.12:_ZN6spdlog17pattern_formatter9get_time_ERKNS_7details7log_msgE
libspdlog.so.1.12:_ZN6spdlog17pattern_formatterC1ENS_17pattern_time_typeENSt7__cxx1112basic_stringIcSt11char_traitsIcESaIcEEE
libspdlog.so.1.12:_ZN6spdlog17pattern_formatterC1ENSt7__cxx1112basic_stringIcSt11char_traitsIcESaIcEEENS_17pattern_time_typeES6_St13unordered_mapIcSt10unique_ptrINS_21custom_flag_formatterESt14default_deleteISA_EESt4hashIcESt8equal_toIcESaISt4pairIKcSD_EEE
libspdlog.so.1.12:_ZN6spdlog17pattern_formatterC2ENS_17pattern_time_typeENSt7__cxx1112basic_stringIcSt11char_traitsIcESaIcEEE
libspdlog.so.1.12:_ZN6spdlog17pattern_formatterC2ENSt7__cxx1112basic_stringIcSt11char_traitsIcESaIcEEENS_17pattern_time_typeES6_St13unordered_mapIcSt10unique_ptrINS_21custom_flag_formatterESt14default_deleteISA_EESt4hashIcESt8equal_toIcESaISt4pairIKcSD_EEE
libspdlog.so.1.12:_ZN6spdlog17set_error_handlerEPFvRKNSt7__cxx1112basic_stringIcSt11char_traitsIcESaIcEEEE
libspdlog.so.1.12:_ZN6spdlog18default_logger_rawEv
libspdlog.so.1.12:_ZN6spdlog18set_default_loggerESt10shared_ptrINS_6loggerEE
libspdlog.so.1.12:_ZN6spdlog23apply_logger_env_levelsESt10shared_ptrINS_6loggerEE
libspdlog.so.1.12:_ZN6spdlog26set_automatic_registrationEb
libspdlog.so.1.12:_ZN6spdlog3cfg7helpers11load_levelsERKNSt7__cxx1112basic_stringIcSt11char_traitsIcESaIcEEE
libspdlog.so.1.12:_ZN6spdlog3getERKNSt7__cxx1112basic_stringIcSt11char_traitsIcESaIcEEE
libspdlog.so.1.12:_ZN6spdlog4dropERKNSt7__cxx1112basic_stringIcSt11char_traitsIcESaIcEEE
libspdlog.so.1.12:_ZN6spdlog4swapERNS_6loggerES1_
libspdlog.so.1.12:_ZN6spdlog5level14to_short_c_strENS0_10level_enumE
libspdlog.so.1.12:_ZN6spdlog5level14to_string_viewENS0_10level_enumE
libspdlog.so.1.12:_ZN6spdlog5level8from_strERKNSt7__cxx1112basic_stringIcSt11char_traitsIcESaIcEEE
libspdlog.so.1.12:_ZN6spdlog5sinks11stderr_sinkINS_7details13console_mutexEEC1Ev
libspdlog.so.1.12:_ZN6spdlog5sinks11stderr_sinkINS_7details13console_mutexEEC2Ev
libspdlog.so.1.12:_ZN6spdlog5sinks11stderr_sinkINS_7details17console_nullmutexEEC1Ev
libspdlog.so.1.12:_ZN6spdlog5sinks11stderr_sinkINS_7details17console_nullmutexEEC2Ev
libspdlog.so.1.12:_ZN6spdlog5sinks11stdout_sinkINS_7details13console_mutexEEC1Ev
libspdlog.so.1.12:_ZN6spdlog5sinks11stdout_sinkINS_7details13console_mutexEEC2Ev
libspdlog.so.1.12:_ZN6spdlog5sinks11stdout_sinkINS_7details17console_nullmutexEEC1Ev
libspdlog.so.1.12:_ZN6spdlog5sinks11stdout_sinkINS_7details17console_nullmutexEEC2Ev
libspdlog.so.1.12:_ZN6spdlog5sinks14ansicolor_sinkINS_7details13console_mutexEE10to_string_B5cxx11ERKN3fmt2v917basic_string_viewIcEE
libspdlog.so.1.12:_ZN6spdlog5sinks14ansicolor_sinkINS_7details13console_mutexEE11set_patternERKNSt7__cxx1112basic_stringIcSt11char_traitsIcESaIcEEE
libspdlog.so.1.12:_ZN6spdlog5sinks14ansicolor_sinkINS_7details13console_mutexEE12print_ccode_ERKN3fmt2v917basic_string_viewIcEE
libspdlog.so.1.12:_ZN6spdlog5sinks14ansicolor_sinkINS_7details13console_mutexEE12print_range_ERKN3fmt2v919basic_memory_bufferIcLm250ESaIcEEEmm
libspdlog.so.1.12:_ZN6spdlog5sinks14ansicolor_sinkINS_7details13console_mutexEE12should_colorEv
libspdlog.so.1.12:_ZN6spdlog5sinks14ansicolor_sinkINS_7details13console_mutexEE13set_formatterESt10unique_ptrINS_9formatterESt14default_deleteIS6_EE
libspdlog.so.1.12:_ZN6spdlog5sinks14ansicolor_sinkINS_7details13console_mutexEE14set_color_modeENS_10color_modeE
libspdlog.so.1.12:_ZN6spdlog5sinks14ansicolor_sinkINS_7details13console_mutexEE3logERKNS2_7log_msgE
libspdlog.so.1.12:_ZN6spdlog5sinks14ansicolor_sinkINS_7details13console_mutexEE5flushEv
libspdlog.so.1.12:_ZN6spdlog5sinks14ansicolor_sinkINS_7details13console_mutexEE9set_colorENS_5level10level_enumEN3fmt2v917basic_string_viewIcEE
libspdlog.so.1.12:_ZN6spdlog5sinks14ansicolor_sinkINS_7details13console_mutexEEC1EP8_IO_FILENS_10color_modeE
libspdlog.so.1.12:_ZN6spdlog5sinks14ansicolor_sinkINS_7details13console_mutexEEC2EP8_IO_FILENS_10color_modeE
libspdlog.so.1.12:_ZN6spdlog5sinks14ansicolor_sinkINS_7details17console_nullmutexEE10to_string_B5cxx11ERKN3fmt2v917basic_string_viewIcEE
libspdlog.so.1.12:_ZN6spdlog5sinks14ansicolor_sinkINS_7details17console_nullmutexEE11set_patternERKNSt7__cxx1112basic_stringIcSt11char_traitsIcESaIcEEE
libspdlog.so.1.12:_ZN6spdlog5sinks14ansicolor_sinkINS_7details17console_nullmutexEE12print_ccode_ERKN3fmt2v917basic_string_viewIcEE
libspdlog.so.1.12:_ZN6spdlog5sinks14ansicolor_sinkINS_7details17console_nullmutexEE12print_range_ERKN3fmt2v919basic_memory_bufferIcLm250ESaIcEEEmm
libspdlog.so.1.12:_ZN6spdlog5sinks14ansicolor_sinkINS_7details17console_nullmutexEE12should_colorEv
libspdlog.so.1.12:_ZN6spdlog5sinks14ansicolor_sinkINS_7details17console_nullmutexEE13set_formatterESt10unique_ptrINS_9formatterESt14default_deleteIS6_EE
libspdlog.so.1.12:_ZN6spdlog5sinks14ansicolor_sinkINS_7details17console_nullmutexEE14set_color_modeENS_10color_modeE
libspdlog.so.1.12:_ZN6spdlog5sinks14ansicolor_sinkINS_7details17console_nullmutexEE3logERKNS2_7log_msgE
libspdlog.so.1.12:_ZN6spdlog5sinks14ansicolor_sinkINS_7details17console_nullmutexEE5flushEv
libspdlog.so.1.12:_ZN6spdlog5sinks14ansicolor_sinkINS_7details17console_nullmutexEE9set_colorENS_5level10level_enumEN3fmt2v917basic_string_viewIcEE
libspdlog.so.1.12:_ZN6spdlog5sinks14ansicolor_sinkINS_7details17console_nullmutexEEC1EP8_IO_FILENS_10color_modeE
libspdlog.so.1.12:_ZN6spdlog5sinks14ansicolor_sinkINS_7details17console_nullmutexEEC2EP8_IO_FILENS_10color_modeE
libspdlog.so.1.12:_ZN6spdlog5sinks15basic_file_sinkINS_7details10null_mutexEE6flush_Ev
libspdlog.so.1.12:_ZN6spdlog5sinks15basic_file_sinkINS_7details10null_mutexEE8sink_it_ERKNS2_7log_msgE
libspdlog.so.1.12:_ZN6spdlog5sinks15basic_file_sinkINS_7details10null_mutexEEC1ERKNSt7__cxx1112basic_stringIcSt11char_traitsIcESaIcEEEbRKNS_19file_event_handlersE
libspdlog.so.1.12:_ZN6spdlog5sinks15basic_file_sinkINS_7details10null_mutexEEC2ERKNSt7__cxx1112basic_stringIcSt11char_traitsIcESaIcEEEbRKNS_19file_event_handlersE
libspdlog.so.1.12:_ZN6spdlog5sinks15basic_file_sinkISt5mutexE6flush_Ev
libspdlog.so.1.12:_ZN6spdlog5sinks15basic_file_sinkISt5mutexE8sink_it_ERKNS_7details7log_msgE
libspdlog.so.1.12:_ZN6spdlog5sinks15basic_file_sinkISt5mutexEC1ERKNSt7__cxx1112basic_stringIcSt11char_traitsIcESaIcEEEbRKNS_19file_event_handlersE
libspdlog.so.1.12:_ZN6spdlog5sinks15basic_file_sinkISt5mutexEC2ERKNSt7__cxx1112basic_stringIcSt11char_traitsIcESaIcEEEbRKNS_19file_event_handlersE
libspdlog.so.1.12:_ZN6spdlog5sinks16stdout_sink_baseINS_7details13console_mutexEE11set_patternERKNSt7__cxx1112basic_stringIcSt11char_traitsIcESaIcEEE
libspdlog.so.1.12:_ZN6spdlog5sinks16stdout_sink_baseINS_7details13console_mutexEE13set_formatterESt10unique_ptrINS_9formatterESt14default_deleteIS6_EE
libspdlog.so.1.12:_ZN6spdlog5sinks16stdout_sink_baseINS_7details13console_mutexEE3logERKNS2_7log_msgE
libspdlog.so.1.12:_ZN6spdlog5sinks16stdout_sink_baseINS_7details13console_mutexEE5flushEv
libspdlog.so.1.12:_ZN6spdlog5sinks16stdout_sink_baseINS_7details13console_mutexEEC1EP8_IO_FILE
libspdlog.so.1.12:_ZN6spdlog5sinks16stdout_sink_baseINS_7details13console_mutexEEC2EP8_IO_FILE
libspdlog.so.1.12:_ZN6spdlog5sinks16stdout_sink_baseINS_7details17console_nullmutexEE11set_patternERKNSt7__cxx1112basic_stringIcSt11char_traitsIcESaIcEEE
libspdlog.so.1.12:_ZN6spdlog5sinks16stdout_sink_baseINS_7details17console_nullmutexEE13set_formatterESt10unique_ptrINS_9formatterESt14default_deleteIS6_EE
libspdlog.so.1.12:_ZN6spdlog5sinks16stdout_sink_baseINS_7details17console_nullmutexEE3logERKNS2_7log_msgE
libspdlog.so.1.12:_ZN6spdlog5sinks16stdout_sink_baseINS_7details17console_nullmutexEE5flushEv
libspdlog.so.1.12:_ZN6spdlog5sinks16stdout_sink_baseINS_7details17console_nullmutexEEC1EP8_IO_FILE
libspdlog.so.1.12:_ZN6spdlog5sinks16stdout_sink_baseINS_7details17console_nullmutexEEC2EP8_IO_FILE
libspdlog.so.1.12:_ZN6spdlog5sinks18rotating_file_sinkINS_7details10null_mutexEE12rename_file_ERKNSt7__cxx1112basic_stringIcSt11char_traitsIcESaIcEEESC_
libspdlog.so.1.12:_ZN6spdlog5sinks18rotating_file_sinkINS_7details10null_mutexEE13calc_filenameERKNSt7__cxx1112basic_stringIcSt11char_traitsIcESaIcEEEm
libspdlog.so.1.12:_ZN6spdlog5sinks18rotating_file_sinkINS_7details10null_mutexEE6flush_Ev
libspdlog.so.1.12:_ZN6spdlog5sinks18rotating_file_sinkINS_7details10null_mutexEE7rotate_Ev
libspdlog.so.1.12:_ZN6spdlog5sinks18rotating_file_sinkINS_7details10null_mutexEE8filenameB5cxx11Ev
libspdlog.so.1.12:_ZN6spdlog5sinks18rotating_file_sinkINS_7details10null_mutexEE8sink_it_ERKNS2_7log_msgE
libspdlog.so.1.12:_ZN6spdlog5sinks18rotating_file_sinkINS_7details10null_mutexEEC1ENSt7__cxx1112basic_stringIcSt11char_traitsIcESaIcEEEmmbRKNS_19file_event_handlersE
libspdlog.so.1.12:_ZN6spdlog5sinks18rotating_file_sinkINS_7details10null_mutexEEC2ENSt7__cxx1112basic_stringIcSt11char_traitsIcESaIcEEEmmbRKNS_19file_event_handlersE
libspdlog.so.1.12:_ZN6spdlog5sinks18rotating_file_sinkISt5mutexE12rename_file_ERKNSt7__cxx1112basic_stringIcSt11char_traitsIcESaIcEEESB_
libspdlog.so.1.12:_ZN6spdlog5sinks18rotating_file_sinkISt5mutexE13calc_filenameERKNSt7__cxx1112basic_stringIcSt11char_traitsIcESaIcEEEm
libspdlog.so.1.12:_ZN6spdlog5sinks18rotating_file_sinkISt5mutexE6flush_Ev
libspdlog.so.1.12:_ZN6spdlog5sinks18rotating_file_sinkISt5mutexE7rotate_Ev
libspdlog.so.1.12:_ZN6spdlog5sinks18rotating_file_sinkISt5mutexE8filenameB5cxx11Ev
libspdlog.so.1.12:_ZN6spdlog5sinks18rotating_file_sinkISt5mutexE8sink_it_ERKNS_7details7log_msgE
libspdlog.so.1.12:_ZN6spdlog5sinks18rotating_file_sinkISt5mutexEC1ENSt7__cxx1112basic_stringIcSt11char_traitsIcESaIcEEEmmbRKNS_19file_event_handlersE
libspdlog.so.1.12:_ZN6spdlog5sinks18rotating_file_sinkISt5mutexEC2ENSt7__cxx1112basic_stringIcSt11char_traitsIcESaIcEEEmmbRKNS_19file_event_handlersE
libspdlog.so.1.12:_ZN6spdlog5sinks21ansicolor_stderr_sinkINS_7details13console_mutexEEC1ENS_10color_modeE
libspdlog.so.1.12:_ZN6spdlog5sinks21ansicolor_stderr_sinkINS_7details13console_mutexEEC2ENS_10color_modeE
libspdlog.so.1.12:_ZN6spdlog5sinks21ansicolor_stderr_sinkINS_7details17console_nullmutexEEC1ENS_10color_modeE
libspdlog.so.1.12:_ZN6spdlog5sinks21ansicolor_stderr_sinkINS_7details17console_nullmutexEEC2ENS_10color_modeE
libspdlog.so.1.12:_ZN6spdlog5sinks21ansicolor_stdout_sinkINS_7details13console_mutexEEC1ENS_10color_modeE
libspdlog.so.1.12:_ZN6spdlog5sinks21ansicolor_stdout_sinkINS_7details13console_mutexEEC2ENS_10color_modeE
libspdlog.so.1.12:_ZN6spdlog5sinks21ansicolor_stdout_sinkINS_7details17console_nullmutexEEC1ENS_10color_modeE
libspdlog.so.1.12:_ZN6spdlog5sinks21ansicolor_stdout_sinkINS_7details17console_nullmutexEEC2ENS_10color_modeE
libspdlog.so.1.12:_ZN6spdlog5sinks4sink9set_levelENS_5level10level_enumE
libspdlog.so.1.12:_ZN6spdlog5sinks9base_sinkINS_7details10null_mutexEE11set_patternERKNSt7__cxx1112basic_stringIcSt11char_traitsIcESaIcEEE
libspdlog.so.1.12:_ZN6spdlog5sinks9base_sinkINS_7details10null_mutexEE12set_pattern_ERKNSt7__cxx1112basic_stringIcSt11char_traitsIcESaIcEEE
libspdlog.so.1.12:_ZN6spdlog5sinks9base_sinkINS_7details10null_mutexEE13set_formatterESt10unique_ptrINS_9formatterESt14default_deleteIS6_EE
libspdlog.so.1.12:_ZN6spdlog5sinks9base_sinkINS_7details10null_mutexEE14set_formatter_ESt10unique_ptrINS_9formatterESt14default_deleteIS6_EE
libspdlog.so.1.12:_ZN6spdlog5sinks9base_sinkINS_7details10null_mutexEE3logERKNS2_7log_msgE
libspdlog.so.1.12:_ZN6spdlog5sinks9base_sinkINS_7details10null_mutexEE5flushEv
libspdlog.so.1.12:_ZN6spdlog5sinks9base_sinkINS_7details10null_mutexEEC1ESt10unique_ptrINS_9formatterESt14default_deleteIS6_EE
libspdlog.so.1.12:_ZN6spdlog5sinks9base_sinkINS_7details10null_mutexEEC1Ev
libspdlog.so.1.12:_ZN6spdlog5sinks9base_sinkINS_7details10null_mutexEEC2ESt10unique_ptrINS_9formatterESt14default_deleteIS6_EE
libspdlog.so.1.12:_ZN6spdlog5sinks9base_sinkINS_7details10null_mutexEEC2Ev
libspdlog.so.1.12:_ZN6spdlog5sinks9base_sinkISt5mutexE11set_patternERKNSt7__cxx1112basic_stringIcSt11char_traitsIcESaIcEEE
libspdlog.so.1.12:_ZN6spdlog5sinks9base_sinkISt5mutexE12set_pattern_ERKNSt7__cxx1112basic_stringIcSt11char_traitsIcESaIcEEE
libspdlog.so.1.12:_ZN6spdlog5sinks9base_sinkISt5mutexE13set_formatterESt10unique_ptrINS_9formatterESt14default_deleteIS5_EE
libspdlog.so.1.12:_ZN6spdlog5sinks9base_sinkISt5mutexE14set_formatter_ESt10unique_ptrINS_9formatterESt14default_deleteIS5_EE
libspdlog.so.1.12:_ZN6spdlog5sinks9base_sinkISt5mutexE3logERKNS_7details7log_msgE
libspdlog.so.1.12:_ZN6spdlog5sinks9base_sinkISt5mutexE5flushEv
libspdlog.so.1.12:_ZN6spdlog5sinks9base_sinkISt5mutexEC1ESt10unique_ptrINS_9formatterESt14default_deleteIS5_EE
libspdlog.so.1.12:_ZN6spdlog5sinks9base_sinkISt5mutexEC1Ev
libspdlog.so.1.12:_ZN6spdlog5sinks9base_sinkISt5mutexEC2ESt10unique_ptrINS_9formatterESt14default_deleteIS5_EE
libspdlog.so.1.12:_ZN6spdlog5sinks9base_sinkISt5mutexEC2Ev
libspdlog.so.1.12:_ZN6spdlog6logger11set_patternENSt7__cxx1112basic_stringIcSt11char_traitsIcESaIcEEENS_17pattern_time_typeE
libspdlog.so.1.12:_ZN6spdlog6logger12err_handler_ERKNSt7__cxx1112basic_stringIcSt11char_traitsIcESaIcEEE
libspdlog.so.1.12:_ZN6spdlog6logger13set_formatterESt10unique_ptrINS_9formatterESt14default_deleteIS2_EE
libspdlog.so.1.12:_ZN6spdlog6logger13should_flush_ERKNS_7details7log_msgE
libspdlog.so.1.12:_ZN6spdlog6logger14dump_backtraceEv
libspdlog.so.1.12:_ZN6spdlog6logger15dump_backtrace_Ev
libspdlog.so.1.12:_ZN6spdlog6logger16enable_backtraceEm
libspdlog.so.1.12:_ZN6spdlog6logger17disable_backtraceEv
libspdlog.so.1.12:_ZN6spdlog6logger17set_error_handlerESt8functionIFvRKNSt7__cxx1112basic_stringIcSt11char_traitsIcESaIcEEEEE
libspdlog.so.1.12:_ZN6spdlog6logger4swapERS0_
libspdlog.so.1.12:_ZN6spdlog6logger5cloneENSt7__cxx1112basic_stringIcSt11char_traitsIcESaIcEEE
libspdlog.so.1.12:_ZN6spdlog6logger5flushEv
libspdlog.so.1.12:_ZN6spdlog6logger5sinksEv
libspdlog.so.1.12:_ZN6spdlog6logger6flush_Ev
libspdlog.so.1.12:_ZN6spdlog6logger7log_it_ERKNS_7details7log_msgEbb
libspdlog.so.1.12:_ZN6spdlog6logger8flush_onENS_5level10level_enumE
libspdlog.so.1.12:_ZN6spdlog6logger8sink_it_ERKNS_7details7log_msgE
libspdlog.so.1.12:_ZN6spdlog6logger9set_levelENS_5level10level_enumE
libspdlog.so.1.12:_ZN6spdlog6loggerC1EOS0_
libspdlog.so.1.12:_ZN6spdlog6loggerC1ERKS0_
libspdlog.so.1.12:_ZN6spdlog6loggerC1IPKSt10shared_ptrINS_5sinks4sinkEEEENSt7__cxx1112basic_stringIcSt11char_traitsIcESaIcEEET_SE_
libspdlog.so.1.12:_ZN6spdlog6loggerC2EOS0_
libspdlog.so.1.12:_ZN6spdlog6loggerC2ERKS0_
libspdlog.so.1.12:_ZN6spdlog6loggerC2IPKSt10shared_ptrINS_5sinks4sinkEEEENSt7__cxx1112basic_stringIcSt11char_traitsIcESaIcEEET_SE_
libspdlog.so.1.12:_ZN6spdlog6loggeraSES0_
libspdlog.so.1.12:_ZN6spdlog7details10backtracer11foreach_popESt8functionIFvRKNS0_7log_msgEEE
libspdlog.so.1.12:_ZN6spdlog7details10backtracer6enableEm
libspdlog.so.1.12:_ZN6spdlog7details10backtracer7disableEv
libspdlog.so.1.12:_ZN6spdlog7details10backtracer9push_backERKNS0_7log_msgE
libspdlog.so.1.12:_ZN6spdlog7details10backtracerC1EOS1_
libspdlog.so.1.12:_ZN6spdlog7details10backtracerC1ERKS1_
libspdlog.so.1.12:_ZN6spdlog7details10backtracerC2EOS1_
libspdlog.so.1.12:_ZN6spdlog7details10backtracerC2ERKS1_
libspdlog.so.1.12:_ZN6spdlog7details10backtraceraSES1_
libspdlog.so.1.12:_ZN6spdlog7details11file_helper18split_by_extensionERKNSt7__cxx1112basic_stringIcSt11char_traitsIcESaIcEEE
libspdlog.so.1.12:_ZN6spdlog7details11file_helper4openERKNSt7__cxx1112basic_stringIcSt11char_traitsIcESaIcEEEb
libspdlog.so.1.12:_ZN6spdlog7details11file_helper4syncEv
libspdlog.so.1.12:_ZN6spdlog7details11file_helper5closeEv
libspdlog.so.1.12:_ZN6spdlog7details11file_helper5flushEv
libspdlog.so.1.12:_ZN6spdlog7details11file_helper5writeERKN3fmt2v919basic_memory_bufferIcLm250ESaIcEEE
libspdlog.so.1.12:_ZN6spdlog7details11file_helper6reopenEb
libspdlog.so.1.12:_ZN6spdlog7details11file_helperC1ERKNS_19file_event_handlersE
libspdlog.so.1.12:_ZN6spdlog7details11file_helperC2ERKNS_19file_event_handlersE
libspdlog.so.1.12:_ZN6spdlog7details11file_helperD1Ev
libspdlog.so.1.12:_ZN6spdlog7details11file_helperD2Ev
libspdlog.so.1.12:_ZN6spdlog7details11thread_pool10post_flushEOSt10shared_ptrINS_12async_loggerEENS_21async_overflow_policyE
libspdlog.so.1.12:_ZN6spdlog7details11thread_pool10queue_sizeEv
libspdlog.so.1.12:_ZN6spdlog7details11thread_pool12worker_loop_Ev
libspdlog.so.1.12:_ZN6spdlog7details11thread_pool15overrun_counterEv
libspdlog.so.1.12:_ZN6spdlog7details11thread_pool15post_async_msg_EONS0_9async_msgENS_21async_overflow_policyE
libspdlog.so.1.12:_ZN6spdlog7details11thread_pool17process_next_msg_Ev
libspdlog.so.1.12:_ZN6spdlog7details11thread_pool21reset_overrun_counterEv
libspdlog.so.1.12:_ZN6spdlog7details11thread_pool8post_logEOSt10shared_ptrINS_12async_loggerEERKNS0_7log_msgENS_21async_overflow_policyE
libspdlog.so.1.12:_ZN6spdlog7details11thread_poolC1Emm
libspdlog.so.1.12:_ZN6spdlog7details11thread_poolC1EmmSt8functionIFvvEE
libspdlog.so.1.12:_ZN6spdlog7details11thread_poolC1EmmSt8functionIFvvEES4_
libspdlog.so.1.12:_ZN6spdlog7details11thread_poolC2Emm
libspdlog.so.1.12:_ZN6spdlog7details11thread_poolC2EmmSt8functionIFvvEE
libspdlog.so.1.12:_ZN6spdlog7details11thread_poolC2EmmSt8functionIFvvEES4_
libspdlog.so.1.12:_ZN6spdlog7details11thread_poolD1Ev
libspdlog.so.1.12:_ZN6spdlog7details11thread_poolD2Ev
libspdlog.so.1.12:_ZN6spdlog7details14log_msg_buffer19update_string_viewsEv
libspdlog.so.1.12:_ZN6spdlog7details14log_msg_bufferC1EOS1_
libspdlog.so.1.12:_ZN6spdlog7details14log_msg_bufferC1ERKNS0_7log_msgE
libspdlog.so.1.12:_ZN6spdlog7details14log_msg_bufferC1ERKS1_
libspdlog.so.1.12:_ZN6spdlog7details14log_msg_bufferC2EOS1_
libspdlog.so.1.12:_ZN6spdlog7details14log_msg_bufferC2ERKNS0_7log_msgE
libspdlog.so.1.12:_ZN6spdlog7details14log_msg_bufferC2ERKS1_
libspdlog.so.1.12:_ZN6spdlog7details14log_msg_bufferaSEOS1_
libspdlog.so.1.12:_ZN6spdlog7details14log_msg_bufferaSERKS1_
libspdlog.so.1.12:_ZN6spdlog7details15periodic_workerD1Ev
libspdlog.so.1.12:_ZN6spdlog7details15periodic_workerD2Ev
libspdlog.so.1.12:_ZN6spdlog7details2os10_thread_idEv
libspdlog.so.1.12:_ZN6spdlog7details2os10create_dirERKNSt7__cxx1112basic_stringIcSt11char_traitsIcESaIcEEE
libspdlog.so.1.12:_ZN6spdlog7details2os11in_terminalEP8_IO_FILE
libspdlog.so.1.12:_ZN6spdlog7details2os11path_existsERKNSt7__cxx1112basic_stringIcSt11char_traitsIcESaIcEEE
libspdlog.so.1.12:_ZN6spdlog7details2os15filename_to_strERKNSt7__cxx1112basic_stringIcSt11char_traitsIcESaIcEEE
libspdlog.so.1.12:_ZN6spdlog7details2os16remove_if_existsERKNSt7__cxx1112basic_stringIcSt11char_traitsIcESaIcEEE
libspdlog.so.1.12:_ZN6spdlog7details2os16sleep_for_millisEj
libspdlog.so.1.12:_ZN6spdlog7details2os17is_color_terminalEv
libspdlog.so.1.12:_ZN6spdlog7details2os18utc_minutes_offsetERK2tm
libspdlog.so.1.12:_ZN6spdlog7details2os3nowEv
libspdlog.so.1.12:_ZN6spdlog7details2os3pidEv
libspdlog.so.1.12:_ZN6spdlog7details2os5fsyncEP8_IO_FILE
libspdlog.so.1.12:_ZN6spdlog7details2os6getenvB5cxx11EPKc
libspdlog.so.1.12:_ZN6spdlog7details2os6gmtimeERKl
libspdlog.so.1.12:_ZN6spdlog7details2os6gmtimeEv
libspdlog.so.1.12:_ZN6spdlog7details2os6removeERKNSt7__cxx1112basic_stringIcSt11char_traitsIcESaIcEEE
libspdlog.so.1.12:_ZN6spdlog7details2os6renameERKNSt7__cxx1112basic_stringIcSt11char_traitsIcESaIcEEES9_
libspdlog.so.1.12:_ZN6spdlog7details2os7fopen_sEPP8_IO_FILERKNSt7__cxx1112basic_stringIcSt11char_traitsIcESaIcEEESC_
libspdlog.so.1.12:_ZN6spdlog7details2os8dir_nameERKNSt7__cxx1112basic_stringIcSt11char_traitsIcESaIcEEE
libspdlog.so.1.12:_ZN6spdlog7details2os8filesizeEP8_IO_FILE
libspdlog.so.1.12:_ZN6spdlog7details2os9localtimeERKl
libspdlog.so.1.12:_ZN6spdlog7details2os9localtimeEv
libspdlog.so.1.12:_ZN6spdlog7details2os9thread_idEv
libspdlog.so.1.12:_ZN6spdlog7details7log_msgC1EN3fmt2v917basic_string_viewIcEENS_5level10level_enumES5_
libspdlog.so.1.12:_ZN6spdlog7details7log_msgC1ENS_10source_locEN3fmt2v917basic_string_viewIcEENS_5level10level_enumES6_
libspdlog.so.1.12:_ZN6spdlog7details7log_msgC1ENSt6chrono10time_pointINS2_3_V212system_clockENS2_8durationIlSt5ratioILl1ELl1000000000EEEEEENS_10source_locEN3fmt2v917basic_string_viewIcEENS_5level10level_enumESF_
libspdlog.so.1.12:_ZN6spdlog7details7log_msgC2EN3fmt2v917basic_string_viewIcEENS_5level10level_enumES5_
libspdlog.so.1.12:_ZN6spdlog7details7log_msgC2ENS_10source_locEN3fmt2v917basic_string_viewIcEENS_5level10level_enumES6_
libspdlog.so.1.12:_ZN6spdlog7details7log_msgC2ENSt6chrono10time_pointINS2_3_V212system_clockENS2_8durationIlSt5ratioILl1ELl1000000000EEEEEENS_10source_locEN3fmt2v917basic_string_viewIcEENS_5level10level_enumESF_
libspdlog.so.1.12:_ZN6spdlog7details8registry10set_levelsESt13unordered_mapINSt7__cxx1112basic_stringIcSt11char_traitsIcESaIcEEENS_5level10level_enumESt4hashIS8_ESt8equal_toIS8_ESaISt4pairIKS8_SA_EEEPSA_
libspdlog.so.1.12:_ZN6spdlog7details8registry13set_formatterESt10unique_ptrINS_9formatterESt14default_deleteIS3_EE
libspdlog.so.1.12:_ZN6spdlog7details8registry14default_loggerEv
libspdlog.so.1.12:_ZN6spdlog7details8registry15get_default_rawEv
libspdlog.so.1.12:_ZN6spdlog7details8registry15register_loggerESt10shared_ptrINS_6loggerEE
libspdlog.so.1.12:_ZN6spdlog7details8registry16enable_backtraceEm
libspdlog.so.1.12:_ZN6spdlog7details8registry16register_logger_ESt10shared_ptrINS_6loggerEE
libspdlog.so.1.12:_ZN6spdlog7details8registry16throw_if_exists_ERKNSt7__cxx1112basic_stringIcSt11char_traitsIcESaIcEEE
libspdlog.so.1.12:_ZN6spdlog7details8registry17disable_backtraceEv
libspdlog.so.1.12:_ZN6spdlog7details8registry17initialize_loggerESt10shared_ptrINS_6loggerEE
libspdlog.so.1.12:_ZN6spdlog7details8registry17set_error_handlerESt8functionIFvRKNSt7__cxx1112basic_stringIcSt11char_traitsIcESaIcEEEEE
libspdlog.so.1.12:_ZN6spdlog7details8registry18set_default_loggerESt10shared_ptrINS_6loggerEE
libspdlog.so.1.12:_ZN6spdlog7details8registry23apply_logger_env_levelsESt10shared_ptrINS_6loggerEE
libspdlog.so.1.12:_ZN6spdlog7details8registry26set_automatic_registrationEb
libspdlog.so.1.12:_ZN6spdlog7details8registry3getERKNSt7__cxx1112basic_stringIcSt11char_traitsIcESaIcEEE
libspdlog.so.1.12:_ZN6spdlog7details8registry4dropERKNSt7__cxx1112basic_stringIcSt11char_traitsIcESaIcEEE
libspdlog.so.1.12:_ZN6spdlog7details8registry6get_tpEv
libspdlog.so.1.12:_ZN6spdlog7details8registry6set_tpESt10shared_ptrINS0_11thread_poolEE
libspdlog.so.1.12:_ZN6spdlog7details8registry8drop_allEv
libspdlog.so.1.12:_ZN6spdlog7details8registry8flush_onENS_5level10level_enumE
libspdlog.so.1.12:_ZN6spdlog7details8registry8instanceEv
libspdlog.so.1.12:_ZN6spdlog7details8registry8shutdownEv
libspdlog.so.1.12:_ZN6spdlog7details8registry8tp_mutexEv
libspdlog.so.1.12:_ZN6spdlog7details8registry9apply_allERKSt8functionIFvSt10shared_ptrINS_6loggerEEEE
libspdlog.so.1.12:_ZN6spdlog7details8registry9flush_allEv
libspdlog.so.1.12:_ZN6spdlog7details8registry9set_levelENS_5level10level_enumE
libspdlog.so.1.12:_ZN6spdlog7details8registryC1Ev
libspdlog.so.1.12:_ZN6spdlog7details8registryC2Ev
libspdlog.so.1.12:_ZN6spdlog7details8registryD1Ev
libspdlog.so.1.12:_ZN6spdlog7details8registryD2Ev
libspdlog.so.1.12:_ZN6spdlog8drop_allEv
libspdlog.so.1.12:_ZN6spdlog8flush_onENS_5level10level_enumE
libspdlog.so.1.12:_ZN6spdlog8shutdownEv
libspdlog.so.1.12:_ZN6spdlog9apply_allERKSt8functionIFvSt10shared_ptrINS_6loggerEEEE
libspdlog.so.1.12:_ZN6spdlog9get_levelEv
libspdlog.so.1.12:_ZN6spdlog9set_levelENS_5level10level_enumE
libspdlog.so.1.12:_ZN6spdlog9spdlog_exC1ENSt7__cxx1112basic_stringIcSt11char_traitsIcESaIcEEE
libspdlog.so.1.12:_ZN6spdlog9spdlog_exC1ERKNSt7__cxx1112basic_stringIcSt11char_traitsIcESaIcEEEi
libspdlog.so.1.12:_ZN6spdlog9spdlog_exC2ENSt7__cxx1112basic_stringIcSt11char_traitsIcESaIcEEE
libspdlog.so.1.12:_ZN6spdlog9spdlog_exC2ERKNSt7__cxx1112basic_stringIcSt11char_traitsIcESaIcEEEi
libspdlog.so.1.12:_ZNK3fmt2v96detail10locale_ref3getISt6localeEET_v
libspdlog.so.1.12:_ZNK6spdlog17pattern_formatter5cloneEv
libspdlog.so.1.12:_ZNK6spdlog5sinks15basic_file_sinkINS_7details10null_mutexEE8filenameB5cxx11Ev
libspdlog.so.1.12:_ZNK6spdlog5sinks15basic_file_sinkISt5mutexE8filenameB5cxx11Ev
libspdlog.so.1.12:_ZNK6spdlog5sinks4sink10should_logENS_5level10level_enumE
libspdlog.so.1.12:_ZNK6spdlog5sinks4sink5levelEv
libspdlog.so.1.12:_ZNK6spdlog6logger11flush_levelEv
libspdlog.so.1.12:_ZNK6spdlog6logger4nameB5cxx11Ev
libspdlog.so.1.12:_ZNK6spdlog6logger5levelEv
libspdlog.so.1.12:_ZNK6spdlog6logger5sinksEv
libspdlog.so.1.12:_ZNK6spdlog7details10backtracer5emptyEv
libspdlog.so.1.12:_ZNK6spdlog7details10backtracer7enabledEv
libspdlog.so.1.12:_ZNK6spdlog7details11file_helper4sizeEv
libspdlog.so.1.12:_ZNK6spdlog7details11file_helper8filenameB5cxx11Ev
libspdlog.so.1.12:_ZNK6spdlog9spdlog_ex4whatEv
libspdlog.so.1.12:_ZNSt17_Function_handlerIFvRKNSt7__cxx1112basic_stringIcSt11char_traitsIcESaIcEEEEPS8_E10_M_managerERSt9_Any_dataRKSB_St18_Manager_operation
libspdlog.so.1.12:_ZNSt17_Function_handlerIFvRKNSt7__cxx1112basic_stringIcSt11char_traitsIcESaIcEEEEPS8_E9_M_invokeERKSt9_Any_dataS7_
libspdlog.so.1.12:_ZNSt6thread24_M_thread_deps_never_runEv
